target datalayout = "e-m:e-p270:32:32-p271:32:32-p272:64:64-i64:64-i128:128-f80:128-n8:16:32:64-S128"
target triple = "x86_64-pc-linux-gnu"

%struct._generic_N_Vector = type { ptr, ptr, ptr }
%struct._N_VectorContent_Serial = type { i64, i32, ptr }

@stderr = external global ptr, align 8
@.str.51 = private unnamed_addr constant [47 x i8] c"\0ASUNDIALS_ERROR: check_ans failed - ewt <= 0\0A\0A\00", align 1
@stdout = external global ptr, align 8
@.str.52 = private unnamed_addr constant [40 x i8] c"\0ASUNDIALS_WARNING: check_ans error=%g\0A\0A\00", align 1

; Function Attrs: nounwind uwtable
define internal i32 @check_ans(ptr noundef %0, double noundef %1, double noundef %2, double noundef %3) #0 {
  %5 = alloca i32, align 4
  %6 = alloca ptr, align 8
  %7 = alloca double, align 8
  %8 = alloca double, align 8
  %9 = alloca double, align 8
  %10 = alloca i32, align 4
  %11 = alloca ptr, align 8
  %12 = alloca ptr, align 8
  %13 = alloca double, align 8
  %14 = alloca double, align 8
  %15 = alloca double, align 8
  %16 = alloca i32, align 4
  store ptr %0, ptr %6, align 8, !tbaa !12
  store double %1, ptr %7, align 8, !tbaa !4
  store double %2, ptr %8, align 8, !tbaa !4
  store double %3, ptr %9, align 8, !tbaa !4
  call void @llvm.lifetime.start.p0(i64 4, ptr %10) #5
  store i32 0, ptr %10, align 4, !tbaa !8
  call void @llvm.lifetime.start.p0(i64 8, ptr %11) #5
  call void @llvm.lifetime.start.p0(i64 8, ptr %12) #5
  call void @llvm.lifetime.start.p0(i64 8, ptr %13) #5
  call void @llvm.lifetime.start.p0(i64 8, ptr %14) #5
  store double 0.000000e+00, ptr %14, align 8, !tbaa !4
  call void @llvm.lifetime.start.p0(i64 8, ptr %15) #5
  store double 1.000000e+00, ptr %15, align 8, !tbaa !4
  %17 = load ptr, ptr %6, align 8, !tbaa !12
  %18 = call ptr @N_VClone(ptr noundef %17)
  store ptr %18, ptr %11, align 8, !tbaa !12
  %19 = load ptr, ptr %6, align 8, !tbaa !12
  %20 = call ptr @N_VClone(ptr noundef %19)
  store ptr %20, ptr %12, align 8, !tbaa !12
  %21 = load ptr, ptr %11, align 8, !tbaa !12
  %22 = getelementptr inbounds nuw %struct._generic_N_Vector, ptr %21, i32 0, i32 0
  %23 = load ptr, ptr %22, align 8, !tbaa !22
  %24 = getelementptr inbounds nuw %struct._N_VectorContent_Serial, ptr %23, i32 0, i32 2
  %25 = load ptr, ptr %24, align 8, !tbaa !25
  %26 = getelementptr inbounds double, ptr %25, i64 0
  store double 0x3E565EA46E615B42, ptr %26, align 8, !tbaa !4
  %27 = load ptr, ptr %11, align 8, !tbaa !12
  %28 = getelementptr inbounds nuw %struct._generic_N_Vector, ptr %27, i32 0, i32 0
  %29 = load ptr, ptr %28, align 8, !tbaa !22
  %30 = getelementptr inbounds nuw %struct._N_VectorContent_Serial, ptr %29, i32 0, i32 2
  %31 = load ptr, ptr %30, align 8, !tbaa !25
  %32 = getelementptr inbounds double, ptr %31, i64 1
  store double 0x3D36EE956BF402C4, ptr %32, align 8, !tbaa !4
  %33 = load ptr, ptr %11, align 8, !tbaa !12
  %34 = getelementptr inbounds nuw %struct._generic_N_Vector, ptr %33, i32 0, i32 0
  %35 = load ptr, ptr %34, align 8, !tbaa !22
  %36 = getelementptr inbounds nuw %struct._N_VectorContent_Serial, ptr %35, i32 0, i32 2
  %37 = load ptr, ptr %36, align 8, !tbaa !25
  %38 = getelementptr inbounds double, ptr %37, i64 2
  store double 0x3FEFFFFFF4D0AAC0, ptr %38, align 8, !tbaa !4
  %39 = load ptr, ptr %11, align 8, !tbaa !12
  %40 = load ptr, ptr %12, align 8, !tbaa !12
  call void @N_VAbs(ptr noundef %39, ptr noundef %40)
  %41 = load double, ptr %8, align 8, !tbaa !4
  %42 = load ptr, ptr %12, align 8, !tbaa !12
  %43 = load ptr, ptr %12, align 8, !tbaa !12
  call void @N_VScale(double noundef %41, ptr noundef %42, ptr noundef %43)
  %44 = load ptr, ptr %12, align 8, !tbaa !12
  %45 = load double, ptr %9, align 8, !tbaa !4
  %46 = load ptr, ptr %12, align 8, !tbaa !12
  call void @N_VAddConst(ptr noundef %44, double noundef %45, ptr noundef %46)
  %47 = load ptr, ptr %12, align 8, !tbaa !12
  %48 = call double @N_VMin(ptr noundef %47)
  %49 = load double, ptr %14, align 8, !tbaa !4
  %50 = fcmp ole double %48, %49
  br i1 %50, label %51, label %54

51:                                               ; preds = %4
  %52 = load ptr, ptr @stderr, align 8, !tbaa !28
  %53 = call i32 (ptr, ptr, ...) @fprintf(ptr noundef %52, ptr noundef @.str.51) #5
  store i32 -1, ptr %5, align 4
  store i32 1, ptr %16, align 4
  br label %80

54:                                               ; preds = %4
  %55 = load ptr, ptr %12, align 8, !tbaa !12
  %56 = load ptr, ptr %12, align 8, !tbaa !12
  call void @N_VInv(ptr noundef %55, ptr noundef %56)
  %57 = load double, ptr %15, align 8, !tbaa !4
  %58 = load ptr, ptr %6, align 8, !tbaa !12
  %59 = load double, ptr %15, align 8, !tbaa !4
  %60 = fneg double %59
  %61 = load ptr, ptr %11, align 8, !tbaa !12
  %62 = load ptr, ptr %11, align 8, !tbaa !12
  call void @N_VLinearSum(double noundef %57, ptr noundef %58, double noundef %60, ptr noundef %61, ptr noundef %62)
  %63 = load ptr, ptr %11, align 8, !tbaa !12
  %64 = load ptr, ptr %12, align 8, !tbaa !12
  %65 = call double @N_VWrmsNorm(ptr noundef %63, ptr noundef %64)
  store double %65, ptr %13, align 8, !tbaa !4
  %66 = load double, ptr %13, align 8, !tbaa !4
  %67 = load double, ptr %15, align 8, !tbaa !4
  %68 = fcmp olt double %66, %67
  %69 = select i1 %68, i32 0, i32 1
  store i32 %69, ptr %10, align 4, !tbaa !8
  %70 = load i32, ptr %10, align 4, !tbaa !8
  %71 = icmp ne i32 %70, 0
  br i1 %71, label %72, label %76

72:                                               ; preds = %54
  %73 = load ptr, ptr @stdout, align 8, !tbaa !28
  %74 = load double, ptr %13, align 8, !tbaa !4
  %75 = call i32 (ptr, ptr, ...) @fprintf(ptr noundef %73, ptr noundef @.str.52, double noundef %74) #5
  br label %76

76:                                               ; preds = %72, %54
  %77 = load ptr, ptr %11, align 8, !tbaa !12
  call void @N_VDestroy(ptr noundef %77)
  %78 = load ptr, ptr %12, align 8, !tbaa !12
  call void @N_VDestroy(ptr noundef %78)
  %79 = load i32, ptr %10, align 4, !tbaa !8
  store i32 %79, ptr %5, align 4
  store i32 1, ptr %16, align 4
  br label %80

80:                                               ; preds = %76, %51
  call void @llvm.lifetime.end.p0(i64 8, ptr %15) #5
  call void @llvm.lifetime.end.p0(i64 8, ptr %14) #5
  call void @llvm.lifetime.end.p0(i64 8, ptr %13) #5
  call void @llvm.lifetime.end.p0(i64 8, ptr %12) #5
  call void @llvm.lifetime.end.p0(i64 8, ptr %11) #5
  call void @llvm.lifetime.end.p0(i64 4, ptr %10) #5
  %81 = load i32, ptr %5, align 4
  ret i32 %81
}