; Function Attrs: nounwind uwtable
define internal fastcc range(i32 -1, 2) i32 @check_ans(ptr noundef %0) unnamed_addr #0 {
  %2 = tail call ptr @N_VClone(ptr noundef %0) #8
  %3 = tail call ptr @N_VClone(ptr noundef %0) #8
  %4 = load ptr, ptr %2, align 8, !tbaa !12
  %5 = getelementptr inbounds nuw i8, ptr %4, i64 16
  %6 = load ptr, ptr %5, align 8, !tbaa !15
  store double 0x3E565EA46E615B42, ptr %6, align 8, !tbaa !20
  %7 = getelementptr inbounds nuw i8, ptr %6, i64 8
  store double 0x3D36EE956BF402C4, ptr %7, align 8, !tbaa !20
  %8 = getelementptr inbounds nuw i8, ptr %6, i64 16
  store double 0x3FEFFFFFF4D0AAC0, ptr %8, align 8, !tbaa !20
  tail call void @N_VAbs(ptr noundef nonnull %2, ptr noundef %3) #8
  tail call void @N_VScale(double noundef 1.000000e-03, ptr noundef %3, ptr noundef %3) #8
  tail call void @N_VAddConst(ptr noundef %3, double noundef 0x3E7AD7F29ABCAF48, ptr noundef %3) #8
  %9 = tail call double @N_VMin(ptr noundef %3) #8
  %10 = fcmp ugt double %9, 0.000000e+00
  br i1 %10, label %14, label %11

11:                                               ; preds = %1
  %12 = load ptr, ptr @stderr, align 8, !tbaa !8
  %13 = tail call i64 @fwrite(ptr nonnull @.str.51, i64 46, i64 1, ptr %12) #10
  br label %22

14:                                               ; preds = %1
  tail call void @N_VInv(ptr noundef %3, ptr noundef %3) #8
  tail call void @N_VLinearSum(double noundef 1.000000e+00, ptr noundef %0, double noundef -1.000000e+00, ptr noundef nonnull %2, ptr noundef nonnull %2) #8
  %15 = tail call double @N_VWrmsNorm(ptr noundef nonnull %2, ptr noundef %3) #8
  %16 = fcmp uge double %15, 1.000000e+00
  %17 = zext i1 %16 to i32
  br i1 %16, label %18, label %21

18:                                               ; preds = %14
  %19 = load ptr, ptr @stdout, align 8, !tbaa !8
  %20 = tail call i32 (ptr, ptr, ...) @fprintf(ptr noundef %19, ptr noundef nonnull @.str.52, double noundef %15) #8
  br label %21

21:                                               ; preds = %18, %14
  tail call void @N_VDestroy(ptr noundef nonnull %2) #8
  tail call void @N_VDestroy(ptr noundef %3) #8
  br label %22

22:                                               ; preds = %21, %11
  %.0 = phi i32 [ -1, %11 ], [ %17, %21 ]
  ret i32 %.0
}